target datalayout = "e-m:e-p270:32:32-p271:32:32-p272:64:64-i64:64-i128:128-f80:128-n8:16:32:64-S128"
target triple = "x86_64-pc-linux-gnu"

%"struct.i18n::phonenumbers::(anonymous namespace)::NumberTest" = type { %"class.std::__cxx11::basic_string", %"class.std::__cxx11::basic_string" }
%"class.std::__cxx11::basic_string" = type { %"struct.std::__cxx11::basic_string<char>::_Alloc_hider", i64, %union.anon }
%"struct.std::__cxx11::basic_string<char>::_Alloc_hider" = type { ptr }
%union.anon = type { i64, [8 x i8] }
%"class.std::vector.54" = type { %"struct.std::_Vector_base.55" }
%"struct.std::_Vector_base.55" = type { %"struct.std::_Vector_base<i18n::phonenumbers::(anonymous namespace)::NumberTest, std::allocator<i18n::phonenumbers::(anonymous namespace)::NumberTest>>::_Vector_impl" }
%"struct.std::_Vector_base<i18n::phonenumbers::(anonymous namespace)::NumberTest, std::allocator<i18n::phonenumbers::(anonymous namespace)::NumberTest>>::_Vector_impl" = type { %"struct.std::_Vector_base<i18n::phonenumbers::(anonymous namespace)::NumberTest, std::allocator<i18n::phonenumbers::(anonymous namespace)::NumberTest>>::_Vector_impl_data" }
%"struct.std::_Vector_base<i18n::phonenumbers::(anonymous namespace)::NumberTest, std::allocator<i18n::phonenumbers::(anonymous namespace)::NumberTest>>::_Vector_impl_data" = type { ptr, ptr, ptr }
%"class.__gnu_cxx::__normal_iterator.59" = type { ptr }
%"class.__gnu_cxx::__normal_iterator" = type { ptr }

@_ZN4i18n12phonenumbersL20kStrictGroupingCasesE = internal global [7 x %"struct.i18n::phonenumbers::(anonymous namespace)::NumberTest"] zeroinitializer, align 16
@_ZN4i18n12phonenumbersL19kExactGroupingCasesE = internal global [25 x %"struct.i18n::phonenumbers::(anonymous namespace)::NumberTest"] zeroinitializer, align 16

; Function Attrs: mustprogress nounwind uwtable
define internal void @_ZNSt15__new_allocatorIN4i18n12phonenumbers12_GLOBAL__N_110NumberTestEEC2Ev(ptr noundef nonnull align 1 dereferenceable(1) %0) unnamed_addr #5 align 2 {
  %2 = alloca ptr, align 8
  store ptr %0, ptr %2, align 8
  ret void
}

; Function Attrs: mustprogress nounwind uwtable
define internal void @_ZNSt12_Vector_baseIN4i18n12phonenumbers12_GLOBAL__N_110NumberTestESaIS3_EE17_Vector_impl_dataC2Ev(ptr noundef nonnull align 8 dereferenceable(24) %0) unnamed_addr #5 align 2 {
  %2 = alloca ptr, align 8
  store ptr %0, ptr %2, align 8
  %3 = load ptr, ptr %2, align 8
  %4 = getelementptr inbounds %"struct.std::_Vector_base<i18n::phonenumbers::(anonymous namespace)::NumberTest, std::allocator<i18n::phonenumbers::(anonymous namespace)::NumberTest>>::_Vector_impl_data", ptr %3, i32 0, i32 0
  store ptr null, ptr %4, align 8
  %5 = getelementptr inbounds %"struct.std::_Vector_base<i18n::phonenumbers::(anonymous namespace)::NumberTest, std::allocator<i18n::phonenumbers::(anonymous namespace)::NumberTest>>::_Vector_impl_data", ptr %3, i32 0, i32 1
  store ptr null, ptr %5, align 8
  %6 = getelementptr inbounds %"struct.std::_Vector_base<i18n::phonenumbers::(anonymous namespace)::NumberTest, std::allocator<i18n::phonenumbers::(anonymous namespace)::NumberTest>>::_Vector_impl_data", ptr %3, i32 0, i32 2
  store ptr null, ptr %6, align 8
  ret void
}

; Function Attrs: mustprogress nounwind uwtable
define internal void @_ZNSaIN4i18n12phonenumbers12_GLOBAL__N_110NumberTestEEC2Ev(ptr noundef nonnull align 1 dereferenceable(1) %0) unnamed_addr #5 align 2 {
  %2 = alloca ptr, align 8
  store ptr %0, ptr %2, align 8
  %3 = load ptr, ptr %2, align 8
  call void @_ZNSt15__new_allocatorIN4i18n12phonenumbers12_GLOBAL__N_110NumberTestEEC2Ev(ptr noundef nonnull align 1 dereferenceable(1) %3) #3
  ret void
}

; Function Attrs: mustprogress nounwind uwtable
define internal void @_ZNSt12_Vector_baseIN4i18n12phonenumbers12_GLOBAL__N_110NumberTestESaIS3_EE12_Vector_implC2Ev(ptr noundef nonnull align 8 dereferenceable(24) %0) unnamed_addr #5 align 2 {
  %2 = alloca ptr, align 8
  store ptr %0, ptr %2, align 8
  %3 = load ptr, ptr %2, align 8
  call void @_ZNSaIN4i18n12phonenumbers12_GLOBAL__N_110NumberTestEEC2Ev(ptr noundef nonnull align 1 dereferenceable(1) %3) #3
  call void @_ZNSt12_Vector_baseIN4i18n12phonenumbers12_GLOBAL__N_110NumberTestESaIS3_EE17_Vector_impl_dataC2Ev(ptr noundef nonnull align 8 dereferenceable(24) %3) #3
  ret void
}

; Function Attrs: mustprogress nounwind uwtable
define internal noundef nonnull align 8 dereferenceable(8) ptr @_ZNK9__gnu_cxx17__normal_iteratorIPN4i18n12phonenumbers12_GLOBAL__N_110NumberTestESt6vectorIS4_SaIS4_EEE4baseEv(ptr noundef nonnull align 8 dereferenceable(8) %0) #5 align 2 {
  %2 = alloca ptr, align 8
  store ptr %0, ptr %2, align 8
  %3 = load ptr, ptr %2, align 8
  %4 = getelementptr inbounds %"class.__gnu_cxx::__normal_iterator", ptr %3, i32 0, i32 0
  ret ptr %4
}

; Function Attrs: mustprogress nounwind uwtable
define internal void @_ZN9__gnu_cxx17__normal_iteratorIPN4i18n12phonenumbers12_GLOBAL__N_110NumberTestESt6vectorIS4_SaIS4_EEEC2ERKS5_(ptr noundef nonnull align 8 dereferenceable(8) %0, ptr noundef nonnull align 8 dereferenceable(8) %1) unnamed_addr #5 align 2 {
  %3 = alloca ptr, align 8
  %4 = alloca ptr, align 8
  store ptr %0, ptr %3, align 8
  store ptr %1, ptr %4, align 8
  %5 = load ptr, ptr %3, align 8
  %6 = getelementptr inbounds %"class.__gnu_cxx::__normal_iterator", ptr %5, i32 0, i32 0
  %7 = load ptr, ptr %4, align 8
  %8 = load ptr, ptr %7, align 8
  store ptr %8, ptr %6, align 8
  ret void
}

; Function Attrs: mustprogress nounwind uwtable
define internal void @_ZNSt12_Vector_baseIN4i18n12phonenumbers12_GLOBAL__N_110NumberTestESaIS3_EEC2Ev(ptr noundef nonnull align 8 dereferenceable(24) %0) unnamed_addr #5 align 2 {
  %2 = alloca ptr, align 8
  store ptr %0, ptr %2, align 8
  %3 = load ptr, ptr %2, align 8
  %4 = getelementptr inbounds %"struct.std::_Vector_base.55", ptr %3, i32 0, i32 0
  call void @_ZNSt12_Vector_baseIN4i18n12phonenumbers12_GLOBAL__N_110NumberTestESaIS3_EE12_Vector_implC2Ev(ptr noundef nonnull align 8 dereferenceable(24) %4) #3
  ret void
}

; Function Attrs: mustprogress nounwind uwtable
define internal void @_ZN9__gnu_cxx17__normal_iteratorIPKN4i18n12phonenumbers12_GLOBAL__N_110NumberTestESt6vectorIS4_SaIS4_EEEC2IPS4_vEERKNS0_IT_S9_EE(ptr noundef nonnull align 8 dereferenceable(8) %0, ptr noundef nonnull align 8 dereferenceable(8) %1) unnamed_addr #5 align 2 {
  %3 = alloca ptr, align 8
  %4 = alloca ptr, align 8
  store ptr %0, ptr %3, align 8
  store ptr %1, ptr %4, align 8
  %5 = load ptr, ptr %3, align 8
  %6 = getelementptr inbounds %"class.__gnu_cxx::__normal_iterator.59", ptr %5, i32 0, i32 0
  %7 = load ptr, ptr %4, align 8
  %8 = call noundef nonnull align 8 dereferenceable(8) ptr @_ZNK9__gnu_cxx17__normal_iteratorIPN4i18n12phonenumbers12_GLOBAL__N_110NumberTestESt6vectorIS4_SaIS4_EEE4baseEv(ptr noundef nonnull align 8 dereferenceable(8) %7) #3
  %9 = load ptr, ptr %8, align 8
  store ptr %9, ptr %6, align 8
  ret void
}

; Function Attrs: mustprogress nounwind uwtable
define internal ptr @_ZNSt6vectorIN4i18n12phonenumbers12_GLOBAL__N_110NumberTestESaIS3_EE5beginEv(ptr noundef nonnull align 8 dereferenceable(24) %0) #5 align 2 {
  %2 = alloca %"class.__gnu_cxx::__normal_iterator", align 8
  %3 = alloca ptr, align 8
  store ptr %0, ptr %3, align 8
  %4 = load ptr, ptr %3, align 8
  %5 = getelementptr inbounds %"struct.std::_Vector_base.55", ptr %4, i32 0, i32 0
  %6 = getelementptr inbounds %"struct.std::_Vector_base<i18n::phonenumbers::(anonymous namespace)::NumberTest, std::allocator<i18n::phonenumbers::(anonymous namespace)::NumberTest>>::_Vector_impl_data", ptr %5, i32 0, i32 0
  call void @_ZN9__gnu_cxx17__normal_iteratorIPN4i18n12phonenumbers12_GLOBAL__N_110NumberTestESt6vectorIS4_SaIS4_EEEC2ERKS5_(ptr noundef nonnull align 8 dereferenceable(8) %2, ptr noundef nonnull align 8 dereferenceable(8) %6) #3
  %7 = getelementptr inbounds %"class.__gnu_cxx::__normal_iterator", ptr %2, i32 0, i32 0
  %8 = load ptr, ptr %7, align 8
  ret ptr %8
}

; Function Attrs: mustprogress nounwind uwtable
define internal void @_ZNSt6vectorIN4i18n12phonenumbers12_GLOBAL__N_110NumberTestESaIS3_EEC2Ev(ptr noundef nonnull align 8 dereferenceable(24) %0) unnamed_addr #5 align 2 {
  %2 = alloca ptr, align 8
  store ptr %0, ptr %2, align 8
  %3 = load ptr, ptr %2, align 8
  call void @_ZNSt12_Vector_baseIN4i18n12phonenumbers12_GLOBAL__N_110NumberTestESaIS3_EEC2Ev(ptr noundef nonnull align 8 dereferenceable(24) %3) #3
  ret void
}

; Function Attrs: mustprogress uwtable
define dso_local void @_ZN4i18n12phonenumbers61PhoneNumberMatcherTest_MatchesWithStrictGroupingLeniency_Test8TestBodyEv(ptr noundef nonnull align 8 dereferenceable(148) %0) unnamed_addr #4 align 2 personality ptr @__gxx_personality_v0 {
  %2 = alloca ptr, align 8
  %3 = alloca %"class.std::vector.54", align 8
  %4 = alloca %"class.__gnu_cxx::__normal_iterator.59", align 8
  %5 = alloca %"class.__gnu_cxx::__normal_iterator", align 8
  %6 = alloca ptr, align 8
  %7 = alloca i32, align 4
  %8 = alloca %"class.__gnu_cxx::__normal_iterator", align 8
  %9 = alloca %"class.__gnu_cxx::__normal_iterator.59", align 8
  %10 = alloca %"class.__gnu_cxx::__normal_iterator", align 8
  %11 = alloca %"class.__gnu_cxx::__normal_iterator", align 8
  store ptr %0, ptr %2, align 8
  %12 = load ptr, ptr %2, align 8
  call void @_ZNSt6vectorIN4i18n12phonenumbers12_GLOBAL__N_110NumberTestESaIS3_EEC2Ev(ptr noundef nonnull align 8 dereferenceable(24) %3) #3
  %13 = call ptr @_ZNSt6vectorIN4i18n12phonenumbers12_GLOBAL__N_110NumberTestESaIS3_EE5beginEv(ptr noundef nonnull align 8 dereferenceable(24) %3) #3
  %14 = getelementptr inbounds %"class.__gnu_cxx::__normal_iterator", ptr %5, i32 0, i32 0
  store ptr %13, ptr %14, align 8
  call void @_ZN9__gnu_cxx17__normal_iteratorIPKN4i18n12phonenumbers12_GLOBAL__N_110NumberTestESt6vectorIS4_SaIS4_EEEC2IPS4_vEERKNS0_IT_S9_EE(ptr noundef nonnull align 8 dereferenceable(8) %4, ptr noundef nonnull align 8 dereferenceable(8) %5) #3
  %15 = getelementptr inbounds %"class.__gnu_cxx::__normal_iterator.59", ptr %4, i32 0, i32 0
  %16 = load ptr, ptr %15, align 8
  %17 = invoke ptr @_ZNSt6vectorIN4i18n12phonenumbers12_GLOBAL__N_110NumberTestESaIS3_EE6insertIPKS3_vEEN9__gnu_cxx17__normal_iteratorIPS3_S5_EENSA_IS8_S5_EET_SE_(ptr noundef nonnull align 8 dereferenceable(24) %3, ptr %16, ptr noundef @_ZN4i18n12phonenumbersL20kStrictGroupingCasesE, ptr noundef getelementptr inbounds (%"struct.i18n::phonenumbers::(anonymous namespace)::NumberTest", ptr @_ZN4i18n12phonenumbersL20kStrictGroupingCasesE, i64 7))
          to label %18 unwind label %28

18:                                               ; preds = %1
  %19 = getelementptr inbounds %"class.__gnu_cxx::__normal_iterator", ptr %8, i32 0, i32 0
  store ptr %17, ptr %19, align 8
  %20 = call ptr @_ZNSt6vectorIN4i18n12phonenumbers12_GLOBAL__N_110NumberTestESaIS3_EE5beginEv(ptr noundef nonnull align 8 dereferenceable(24) %3) #3
  %21 = getelementptr inbounds %"class.__gnu_cxx::__normal_iterator", ptr %10, i32 0, i32 0
  store ptr %20, ptr %21, align 8
  call void @_ZN9__gnu_cxx17__normal_iteratorIPKN4i18n12phonenumbers12_GLOBAL__N_110NumberTestESt6vectorIS4_SaIS4_EEEC2IPS4_vEERKNS0_IT_S9_EE(ptr noundef nonnull align 8 dereferenceable(8) %9, ptr noundef nonnull align 8 dereferenceable(8) %10) #3
  %22 = getelementptr inbounds %"class.__gnu_cxx::__normal_iterator.59", ptr %9, i32 0, i32 0
  %23 = load ptr, ptr %22, align 8
  %24 = invoke ptr @_ZNSt6vectorIN4i18n12phonenumbers12_GLOBAL__N_110NumberTestESaIS3_EE6insertIPKS3_vEEN9__gnu_cxx17__normal_iteratorIPS3_S5_EENSA_IS8_S5_EET_SE_(ptr noundef nonnull align 8 dereferenceable(24) %3, ptr %23, ptr noundef @_ZN4i18n12phonenumbersL19kExactGroupingCasesE, ptr noundef getelementptr inbounds (%"struct.i18n::phonenumbers::(anonymous namespace)::NumberTest", ptr @_ZN4i18n12phonenumbersL19kExactGroupingCasesE, i64 25))
          to label %25 unwind label %28

25:                                               ; preds = %18
  %26 = getelementptr inbounds %"class.__gnu_cxx::__normal_iterator", ptr %11, i32 0, i32 0
  store ptr %24, ptr %26, align 8
  invoke void @_ZNK4i18n12phonenumbers22PhoneNumberMatcherTest30DoTestNumberMatchesForLeniencyERKSt6vectorINS0_12_GLOBAL__N_110NumberTestESaIS4_EENS0_18PhoneNumberMatcher8LeniencyE(ptr noundef nonnull align 8 dereferenceable(148) %12, ptr noundef nonnull align 8 dereferenceable(24) %3, i32 noundef 2)
          to label %27 unwind label %28

27:                                               ; preds = %25
  call void @_ZNSt6vectorIN4i18n12phonenumbers12_GLOBAL__N_110NumberTestESaIS3_EED2Ev(ptr noundef nonnull align 8 dereferenceable(24) %3) #3
  ret void

28:                                               ; preds = %25, %18, %1
  %29 = landingpad { ptr, i32 }
          cleanup
  %30 = extractvalue { ptr, i32 } %29, 0
  store ptr %30, ptr %6, align 8
  %31 = extractvalue { ptr, i32 } %29, 1
  store i32 %31, ptr %7, align 4
  call void @_ZNSt6vectorIN4i18n12phonenumbers12_GLOBAL__N_110NumberTestESaIS3_EED2Ev(ptr noundef nonnull align 8 dereferenceable(24) %3) #3
  br label %32

32:                                               ; preds = %28
  %33 = load ptr, ptr %6, align 8
  %34 = load i32, ptr %7, align 4
  %35 = insertvalue { ptr, i32 } poison, ptr %33, 0
  %36 = insertvalue { ptr, i32 } %35, i32 %34, 1
  resume { ptr, i32 } %36
}